; ModuleID = 'bench/openjdk/original/logLevel.ll'
source_filename = "bench/openjdk/original/logLevel.ll"
target datalayout = "e-m:e-p270:32:32-p271:32:32-p272:64:64-i64:64-i128:128-f80:128-n8:16:32:64-S128"
target triple = "x86_64-pc-linux-gnu"

@.str = private unnamed_addr constant [4 x i8] c"off\00", align 1
@.str.4 = private unnamed_addr constant [6 x i8] c"trace\00", align 1
@.str.5 = private unnamed_addr constant [6 x i8] c"debug\00", align 1
@.str.6 = private unnamed_addr constant [5 x i8] c"info\00", align 1
@.str.7 = private unnamed_addr constant [8 x i8] c"warning\00", align 1
@.str.8 = private unnamed_addr constant [6 x i8] c"error\00", align 1
@_ZN8LogLevel5_nameE = hidden local_unnamed_addr global [6 x ptr] [ptr @.str, ptr @.str.4, ptr @.str.5, ptr @.str.6, ptr @.str.7, ptr @.str.8], align 16
@llvm.global_ctors = appending global [0 x { i32, ptr, ptr }] zeroinitializer

; Function Attrs: mustprogress nofree nounwind willreturn memory(read) uwtable
define hidden noundef i32 @_ZN8LogLevel11from_stringEPKc(ptr nocapture noundef readonly %0) local_unnamed_addr #0 align 2 {
  br label %2

2:                                                ; preds = %1, %7
  %indvars.iv = phi i64 [ 0, %1 ], [ %indvars.iv.next, %7 ]
  %3 = getelementptr inbounds [6 x ptr], ptr @_ZN8LogLevel5_nameE, i64 0, i64 %indvars.iv
  %4 = load ptr, ptr %3, align 8
  %5 = tail call i32 @strcasecmp(ptr noundef %0, ptr noundef %4) #5
  %6 = icmp eq i32 %5, 0
  br i1 %6, label %.split.loop.exit8, label %7

7:                                                ; preds = %2
  %indvars.iv.next = add nuw nsw i64 %indvars.iv, 1
  %exitcond.not = icmp eq i64 %indvars.iv.next, 6
  br i1 %exitcond.not, label %.split.loop.exit, label %2, !llvm.loop !6

.split.loop.exit8:                                ; preds = %2
  %8 = trunc nuw nsw i64 %indvars.iv to i32
  br label %.split.loop.exit

.split.loop.exit:                                 ; preds = %7, %.split.loop.exit8
  %.05 = phi i32 [ %8, %.split.loop.exit8 ], [ 7, %7 ]
  ret i32 %.05
}

; Function Attrs: mustprogress nofree nounwind willreturn memory(read)
declare i32 @strcasecmp(ptr nocapture noundef, ptr nocapture noundef) local_unnamed_addr #1

; Function Attrs: mustprogress nounwind uwtable
define hidden noundef i32 @_ZN8LogLevel11fuzzy_matchEPKc(ptr noundef %0) local_unnamed_addr #2 align 2 {
  %2 = tail call i64 @strlen(ptr noundef nonnull dereferenceable(1) %0) #5
  br label %3

3:                                                ; preds = %1, %3
  %indvars.iv = phi i64 [ 1, %1 ], [ %indvars.iv.next, %3 ]
  %.019 = phi i32 [ 7, %1 ], [ %.1, %3 ]
  %.01318 = phi double [ 4.000000e-01, %1 ], [ %.114, %3 ]
  %4 = getelementptr inbounds [0 x ptr], ptr @_ZN8LogLevel5_nameE, i64 0, i64 %indvars.iv
  %5 = load ptr, ptr %4, align 8
  %6 = tail call i64 @strlen(ptr noundef nonnull dereferenceable(1) %5) #5
  %7 = tail call noundef double @_ZN11StringUtils10similarityEPKcmS1_m(ptr noundef %0, i64 noundef %2, ptr noundef %5, i64 noundef %6) #6
  %8 = fcmp ult double %7, %.01318
  %.114 = select i1 %8, double %.01318, double %7
  %9 = trunc nuw nsw i64 %indvars.iv to i32
  %.1 = select i1 %8, i32 %.019, i32 %9
  %indvars.iv.next = add nuw nsw i64 %indvars.iv, 1
  %exitcond.not = icmp eq i64 %indvars.iv.next, 6
  br i1 %exitcond.not, label %10, label %3, !llvm.loop !8

10:                                               ; preds = %3
  ret i32 %.1
}

; Function Attrs: mustprogress nofree nounwind willreturn memory(argmem: read)
declare i64 @strlen(ptr nocapture noundef) local_unnamed_addr #3

declare noundef double @_ZN11StringUtils10similarityEPKcmS1_m(ptr noundef, i64 noundef, ptr noundef, i64 noundef) local_unnamed_addr #4


!llvm.module.flags = !{!0, !1, !2, !3, !4, !5}

!0 = !{i32 7, !"Dwarf Version", i32 5}
!1 = !{i32 2, !"Debug Info Version", i32 3}
!2 = !{i32 1, !"wchar_size", i32 4}
!3 = !{i32 8, !"PIC Level", i32 2}
!4 = !{i32 7, !"uwtable", i32 2}
!5 = !{i32 7, !"frame-pointer", i32 2}
!6 = distinct !{!6, !7}
!7 = !{!"llvm.loop.mustprogress"}
!8 = distinct !{!8, !7}
